; Function Attrs: mustprogress nofree norecurse nosync nounwind sspstrong willreturn memory(read, inaccessiblemem: none) uwtable
define hidden i64 @rb_singleton_class_get(i64 noundef %0) local_unnamed_addr #7 {
  %2 = icmp eq i64 %0, 0
  %3 = and i64 %0, 7
  %4 = icmp ne i64 %3, 0
  %5 = or i1 %2, %4
  br i1 %5, label %6, label %13

6:                                                ; preds = %1
  switch i64 %0, label %rb_special_singleton_class.exit [
    i64 4, label %7
    i64 0, label %9
    i64 20, label %11
  ]

7:                                                ; preds = %6
  %8 = load i64, ptr @rb_cNilClass, align 8, !tbaa !29
  br label %rb_special_singleton_class.exit

9:                                                ; preds = %6
  %10 = load i64, ptr @rb_cFalseClass, align 8, !tbaa !29
  br label %rb_special_singleton_class.exit

11:                                               ; preds = %6
  %12 = load i64, ptr @rb_cTrueClass, align 8, !tbaa !29
  br label %rb_special_singleton_class.exit

13:                                               ; preds = %1
  %14 = inttoptr i64 %0 to ptr
  %15 = getelementptr inbounds nuw i8, ptr %14, i64 8
  %16 = load i64, ptr %15, align 8, !tbaa !42
  %17 = icmp eq i64 %16, 0
  %18 = and i64 %16, 7
  %19 = icmp ne i64 %18, 0
  %20 = or i1 %17, %19
  br i1 %20, label %rb_special_singleton_class.exit, label %rbimpl_RB_TYPE_P_fastpath.exit.i

rbimpl_RB_TYPE_P_fastpath.exit.i:                 ; preds = %13
  %21 = inttoptr i64 %16 to ptr
  %22 = load i64, ptr %21, align 8, !tbaa !35
  %23 = and i64 %22, 8223
  %or.cond = icmp eq i64 %23, 8194
  br i1 %or.cond, label %24, label %rb_special_singleton_class.exit

24:                                               ; preds = %rbimpl_RB_TYPE_P_fastpath.exit.i
  %25 = getelementptr inbounds nuw i8, ptr %21, i64 128
  %26 = load i64, ptr %25, align 8, !tbaa !32
  %.not = icmp eq i64 %26, %0
  %. = select i1 %.not, i64 %16, i64 4
  br label %rb_special_singleton_class.exit

rb_special_singleton_class.exit:                  ; preds = %13, %rbimpl_RB_TYPE_P_fastpath.exit.i, %11, %9, %7, %6, %24
  %.0 = phi i64 [ %., %24 ], [ %12, %11 ], [ %10, %9 ], [ %8, %7 ], [ 4, %6 ], [ 4, %rbimpl_RB_TYPE_P_fastpath.exit.i ], [ 4, %13 ]
  ret i64 %.0
}